((dp1
(S'163.79.177.54'
S'73.141.167.92'
I49847
I15442
tp2
I37602
s(S'188.16.246.91'
S'242.27.172.58'
I47669
I49317
tp3
I37602
s(S'152.9.130.78'
S'246.70.123.65'
I8204
I18104
tp4
I37240
s(S'176.198.106.108'
S'68.111.252.136'
I12774
I37619
tp5
I37289
s(S'254.40.91.129'
S'23.190.58.121'
I2608
I14843
tp6
I37602
s(S'160.141.95.221'
S'131.246.243.81'
I9611
I43978
tp7
I37467
s(S'67.114.144.122'
S'88.201.86.69'
I42647
I32818
tp8
I37378
s(S'194.30.120.219'
S'36.125.81.87'
I21864
I28896
tp9
I37258
s(S'251.43.56.149'
S'62.138.170.117'
I14993
I11239
tp10
I37041
s(S'245.60.198.146'
S'188.93.93.39'
I18852
I27957
tp11
I37343
s(S'240.228.192.149'
S'235.4.106.22'
I20007
I5035
tp12
I37316
s(S'24.199.108.103'
S'16.200.229.92'
I4878
I17459
tp13
I37194
s(S'249.45.46.152'
S'146.100.173.107'
I14551
I43927
tp14
I37602
s(S'37.15.117.187'
S'98.56.241.148'
I29319
I16998
tp15
I37282
s(S'57.206.36.95'
S'254.174.108.72'
I47583
I15270
tp16
I37437
s(S'158.25.146.121'
S'174.204.122.100'
I38505
I10318
tp17
I37511
s(S'230.138.81.1'
S'235.119.106.132'
I6474
I41409
tp18
I37200
s(S'67.54.175.248'
S'75.0.196.153'
I14486
I48280
tp19
I36990
s(S'47.112.232.126'
S'131.22.144.222'
I16491
I29390
tp20
I37332
s(S'66.17.214.252'
S'91.51.72.47'
I7574
I20389
tp21
I37089
s(S'202.198.38.95'
S'80.171.207.143'
I10281
I22741
tp22
I37438
s(S'201.225.39.143'
S'133.72.48.221'
I3950
I13762
tp23
I37301
s(S'95.113.194.244'
S'30.16.86.56'
I39104
I44375
tp24
I37237
s(S'29.95.83.40'
S'119.44.48.92'
I46008
I17333
tp25
I36911
s(S'53.83.178.52'
S'133.63.29.184'
I37381
I25869
tp26
I37027
s(S'138.76.233.63'
S'193.65.255.25'
I8158
I18403
tp27
I37043
s(S'197.66.182.173'
S'68.239.42.110'
I15121
I40993
tp28
I37538
s(S'226.191.37.37'
S'18.232.159.7'
I48063
I3905
tp29
I37545
s(S'123.81.244.193'
S'239.225.84.46'
I28213
I16760
tp30
I37526
s(S'55.30.57.112'
S'117.171.93.155'
I44284
I44268
tp31
I37479
s(S'150.237.44.195'
S'109.136.134.222'
I13583
I31411
tp32
I37166
s(S'73.186.214.13'
S'122.213.84.203'
I4689
I935
tp33
I37434
s(S'17.2.222.63'
S'140.190.25.111'
I4023
I32753
tp34
I37187
s(S'215.104.136.98'
S'252.36.212.94'
I33168
I16370
tp35
I37231
s(S'20.108.204.80'
S'14.233.175.230'
I30091
I46068
tp36
I37514
s(S'30.160.123.252'
S'65.186.70.110'
I48184
I27655
tp37
I37479
s(S'67.70.229.123'
S'115.165.104.32'
I4605
I36813
tp38
I37086
s(S'34.40.88.162'
S'3.186.25.216'
I15283
I49475
tp39
I37143
s(S'178.146.107.43'
S'17.109.6.251'
I40905
I19776
tp40
I37143
s(S'56.24.210.172'
S'6.166.52.162'
I46407
I9445
tp41
I37097
s(S'246.54.138.219'
S'112.89.49.241'
I30891
I13718
tp42
I37467
s(S'225.134.145.113'
S'37.228.94.27'
I32827
I10968
tp43
I37503
s(S'253.18.24.241'
S'156.202.234.219'
I4760
I15871
tp44
I37198
s(S'105.184.64.31'
S'174.33.102.32'
I13192
I12364
tp45
I37012
s(S'127.179.56.77'
S'37.91.253.80'
I22451
I36427
tp46
I37578
s(S'110.21.212.113'
S'250.102.19.56'
I41440
I27353
tp47
I37119
s(S'6.83.26.254'
S'150.211.233.72'
I17746
I11001
tp48
I37602
s(S'184.212.121.128'
S'128.29.202.144'
I47132
I45280
tp49
I37463
s(S'192.31.74.194'
S'9.229.96.217'
I6015
I20512
tp50
I36919
s(S'247.43.20.7'
S'194.40.27.246'
I49723
I10337
tp51
I37065
s(S'177.24.32.99'
S'14.171.143.143'
I38453
I5069
tp52
I37103
s(S'110.166.39.216'
S'243.65.19.237'
I48558
I5198
tp53
I37332
s(S'241.58.111.41'
S'167.17.5.154'
I3125
I43433
tp54
I37093
s(S'38.156.126.135'
S'119.107.181.253'
I23581
I11994
tp55
I37139
s(S'175.219.127.227'
S'15.173.68.21'
I40529
I21613
tp56
I37133
s(S'184.161.18.160'
S'64.76.104.206'
I23247
I5638
tp57
I37424
s(S'32.155.26.229'
S'60.104.138.205'
I14950
I13358
tp58
I37129
s(S'109.56.97.243'
S'255.54.84.61'
I8627
I12928
tp59
I37602
s(S'18.132.214.226'
S'14.105.54.75'
I2628
I47821
tp60
I37195
s(S'74.132.132.199'
S'237.47.110.222'
I11569
I30554
tp61
I37345
s(S'88.248.82.18'
S'133.228.159.134'
I21204
I44564
tp62
I37320
s(S'130.101.183.135'
S'204.254.230.103'
I24241
I39318
tp63
I37405
s(S'32.6.230.225'
S'15.175.247.177'
I13885
I44931
tp64
I37201
s(S'232.74.76.247'
S'143.107.162.134'
I41678
I33955
tp65
I37566
s(S'227.225.9.215'
S'246.143.45.175'
I14327
I40628
tp66
I37561
s(S'96.17.73.191'
S'20.214.26.30'
I21776
I45015
tp67
I37513
s(S'109.148.85.101'
S'245.174.202.108'
I21650
I44442
tp68
I37414
s(S'207.153.206.74'
S'106.28.94.110'
I5587
I49294
tp69
I36919
s(S'163.246.94.17'
S'121.118.72.100'
I29767
I44640
tp70
I37602
s(S'95.167.93.141'
S'21.1.196.129'
I6357
I38922
tp71
I37247
s(S'118.221.19.193'
S'139.145.66.71'
I35219
I1139
tp72
I37602
s(S'78.101.236.238'
S'135.82.159.240'
I8759
I31129
tp73
I37094
s(S'41.44.228.157'
S'187.24.196.54'
I39835
I4090
tp74
I37169
s(S'23.143.111.25'
S'248.130.105.61'
I42561
I2306
tp75
I37025
s(S'241.34.216.12'
S'226.140.156.245'
I18835
I44963
tp76
I37444
s(S'210.253.130.34'
S'44.6.159.68'
I17285
I49324
tp77
I37483
s(S'63.185.181.197'
S'195.179.16.40'
I45156
I38816
tp78
I37484
s(S'52.175.188.255'
S'44.251.177.43'
I35094
I45829
tp79
I37344
s(S'228.222.15.225'
S'26.48.156.182'
I28014
I24512
tp80
I37439
s(S'100.166.15.247'
S'153.166.230.9'
I45806
I44233
tp81
I37485
s(S'245.141.110.74'
S'249.162.219.102'
I18341
I12767
tp82
I37357
s(S'28.10.20.93'
S'4.192.12.137'
I37711
I861
tp83
I37602
s(S'255.53.153.110'
S'225.139.5.59'
I2825
I40689
tp84
I37408
s(S'88.222.10.209'
S'198.207.136.145'
I21600
I5069
tp85
I37333
s(S'151.42.239.199'
S'130.74.99.163'
I6643
I28433
tp86
I37476
s(S'96.230.199.184'
S'175.21.255.231'
I13022
I9999
tp87
I37545
s(S'118.26.156.48'
S'166.64.227.174'
I1068
I47261
tp88
I37459
s(S'233.250.54.118'
S'214.178.108.206'
I1602
I21024
tp89
I37244
s(S'150.241.233.159'
S'106.59.19.165'
I37801
I4173
tp90
I37573
s(S'175.31.239.78'
S'59.240.182.190'
I43324
I38598
tp91
I37574
s(S'159.152.163.157'
S'212.226.98.22'
I16694
I20535
tp92
I37241
s(S'112.110.253.251'
S'245.87.153.108'
I38304
I47030
tp93
I37338
s(S'100.224.144.70'
S'6.14.110.245'
I44382
I23197
tp94
I37305
s(S'253.215.94.251'
S'23.241.59.64'
I26266
I46726
tp95
I37381
s(S'28.126.22.77'
S'225.185.10.109'
I39318
I17990
tp96
I37602
s(S'45.203.92.153'
S'99.94.163.41'
I14304
I704
tp97
I37065
s(S'137.196.174.46'
S'157.43.22.214'
I17771
I30822
tp98
I37602
s(S'78.157.249.206'
S'55.135.109.105'
I8743
I33342
tp99
I37129
s(S'15.254.138.243'
S'79.219.32.41'
I619
I11962
tp100
I36994
s(S'172.214.242.177'
S'231.251.32.120'
I42044
I21204
tp101
I37034
s(dp102
(S'163.79.177.54'
S'73.141.167.92'
I49847
I15442
tp103
I1
s(S'188.16.246.91'
S'242.27.172.58'
I47669
I49317
tp104
I1
s(S'152.9.130.78'
S'246.70.123.65'
I8204
I18104
tp105
I362
s(S'176.198.106.108'
S'68.111.252.136'
I12774
I37619
tp106
I304
s(S'246.54.138.219'
S'112.89.49.241'
I30891
I13718
tp107
I136
s(S'160.141.95.221'
S'131.246.243.81'
I9611
I43978
tp108
I136
s(S'67.114.144.122'
S'88.201.86.69'
I42647
I32818
tp109
I224
s(S'194.30.120.219'
S'36.125.81.87'
I21864
I28896
tp110
I351
s(S'251.43.56.149'
S'62.138.170.117'
I14993
I11239
tp111
I574
s(S'245.60.198.146'
S'188.93.93.39'
I18852
I27957
tp112
I259
s(S'240.228.192.149'
S'235.4.106.22'
I20007
I5035
tp113
I286
s(S'24.199.108.103'
S'16.200.229.92'
I4878
I17459
tp114
I408
s(S'249.45.46.152'
S'146.100.173.107'
I14551
I43927
tp115
I1
s(S'37.15.117.187'
S'98.56.241.148'
I29319
I16998
tp116
I353
s(S'57.206.36.95'
S'254.174.108.72'
I47583
I15270
tp117
I171
s(S'158.25.146.121'
S'174.204.122.100'
I38505
I10318
tp118
I92
s(S'230.138.81.1'
S'235.119.106.132'
I6474
I41409
tp119
I402
s(S'67.54.175.248'
S'75.0.196.153'
I14486
I48280
tp120
I611
s(S'47.112.232.126'
S'131.22.144.222'
I16491
I29390
tp121
I271
s(S'66.17.214.252'
S'91.51.72.47'
I7574
I20389
tp122
I494
s(S'202.198.38.95'
S'80.171.207.143'
I10281
I22741
tp123
I214
s(S'201.225.39.143'
S'133.72.48.221'
I3950
I13762
tp124
I301
s(S'95.113.194.244'
S'30.16.86.56'
I39104
I44375
tp125
I374
s(S'29.95.83.40'
S'119.44.48.92'
I46008
I17333
tp126
I681
s(S'53.83.178.52'
S'133.63.29.184'
I37381
I25869
tp127
I579
s(S'138.76.233.63'
S'193.65.255.25'
I8158
I18403
tp128
I579
s(S'197.66.182.173'
S'68.239.42.110'
I15121
I40993
tp129
I71
s(S'226.191.37.37'
S'18.232.159.7'
I48063
I3905
tp130
I58
s(S'123.81.244.193'
S'239.225.84.46'
I28213
I16760
tp131
I77
s(S'55.30.57.112'
S'117.171.93.155'
I44284
I44268
tp132
I124
s(S'150.237.44.195'
S'109.136.134.222'
I13583
I31411
tp133
I436
s(S'73.186.214.13'
S'122.213.84.203'
I4689
I935
tp134
I168
s(S'17.2.222.63'
S'140.190.25.111'
I4023
I32753
tp135
I476
s(S'215.104.136.98'
S'252.36.212.94'
I33168
I16370
tp136
I371
s(S'20.108.204.80'
S'14.233.175.230'
I30091
I46068
tp137
I100
s(S'30.160.123.252'
S'65.186.70.110'
I48184
I27655
tp138
I124
s(S'67.70.229.123'
S'115.165.104.32'
I4605
I36813
tp139
I516
s(S'34.40.88.162'
S'3.186.25.216'
I15283
I49475
tp140
I459
s(S'178.146.107.43'
S'17.109.6.251'
I40905
I19776
tp141
I459
s(S'56.24.210.172'
S'6.166.52.162'
I46407
I9445
tp142
I505
s(S'254.40.91.129'
S'23.190.58.121'
I2608
I14843
tp143
I1
s(S'225.134.145.113'
S'37.228.94.27'
I32827
I10968
tp144
I98
s(S'253.18.24.241'
S'156.202.234.219'
I4760
I15871
tp145
I404
s(S'105.184.64.31'
S'174.33.102.32'
I13192
I12364
tp146
I589
s(S'127.179.56.77'
S'37.91.253.80'
I22451
I36427
tp147
I25
s(S'110.21.212.113'
S'250.102.19.56'
I41440
I27353
tp148
I483
s(S'6.83.26.254'
S'150.211.233.72'
I17746
I11001
tp149
I1
s(S'184.212.121.128'
S'128.29.202.144'
I47132
I45280
tp150
I140
s(S'192.31.74.194'
S'9.229.96.217'
I6015
I20512
tp151
I682
s(S'247.43.20.7'
S'194.40.27.246'
I49723
I10337
tp152
I536
s(S'177.24.32.99'
S'14.171.143.143'
I38453
I5069
tp153
I499
s(S'110.166.39.216'
S'243.65.19.237'
I48558
I5198
tp154
I270
s(S'241.58.111.41'
S'167.17.5.154'
I3125
I43433
tp155
I509
s(S'38.156.126.135'
S'119.107.181.253'
I23581
I11994
tp156
I453
s(S'175.219.127.227'
S'15.173.68.21'
I40529
I21613
tp157
I537
s(S'184.161.18.160'
S'64.76.104.206'
I23247
I5638
tp158
I178
s(S'32.155.26.229'
S'60.104.138.205'
I14950
I13358
tp159
I473
s(S'109.56.97.243'
S'255.54.84.61'
I8627
I12928
tp160
I1
s(S'18.132.214.226'
S'14.105.54.75'
I2628
I47821
tp161
I407
s(S'74.132.132.199'
S'237.47.110.222'
I11569
I30554
tp162
I257
s(S'88.248.82.18'
S'133.228.159.134'
I21204
I44564
tp163
I280
s(S'130.101.183.135'
S'204.254.230.103'
I24241
I39318
tp164
I197
s(S'32.6.230.225'
S'15.175.247.177'
I13885
I44931
tp165
I401
s(S'232.74.76.247'
S'143.107.162.134'
I41678
I33955
tp166
I38
s(S'227.225.9.215'
S'246.143.45.175'
I14327
I40628
tp167
I42
s(S'96.17.73.191'
S'20.214.26.30'
I21776
I45015
tp168
I78
s(S'109.148.85.101'
S'245.174.202.108'
I21650
I44442
tp169
I189
s(S'207.153.206.74'
S'106.28.94.110'
I5587
I49294
tp170
I679
s(S'163.246.94.17'
S'121.118.72.100'
I29767
I44640
tp171
I1
s(S'95.167.93.141'
S'21.1.196.129'
I6357
I38922
tp172
I355
s(S'118.221.19.193'
S'139.145.66.71'
I35219
I1139
tp173
I1
s(S'78.101.236.238'
S'135.82.159.240'
I8759
I31129
tp174
I555
s(S'41.44.228.157'
S'187.24.196.54'
I39835
I4090
tp175
I433
s(S'23.143.111.25'
S'248.130.105.61'
I42561
I2306
tp176
I576
s(S'241.34.216.12'
S'226.140.156.245'
I18835
I44963
tp177
I187
s(S'210.253.130.34'
S'44.6.159.68'
I17285
I49324
tp178
I177
s(S'63.185.181.197'
S'195.179.16.40'
I45156
I38816
tp179
I142
s(S'52.175.188.255'
S'44.251.177.43'
I35094
I45829
tp180
I258
s(S'228.222.15.225'
S'26.48.156.182'
I28014
I24512
tp181
I163
s(S'100.166.15.247'
S'153.166.230.9'
I45806
I44233
tp182
I118
s(S'245.141.110.74'
S'249.162.219.102'
I18341
I12767
tp183
I297
s(S'28.10.20.93'
S'4.192.12.137'
I37711
I861
tp184
I1
s(S'255.53.153.110'
S'225.139.5.59'
I2825
I40689
tp185
I194
s(S'88.222.10.209'
S'198.207.136.145'
I21600
I5069
tp186
I330
s(S'151.42.239.199'
S'130.74.99.163'
I6643
I28433
tp187
I127
s(S'96.230.199.184'
S'175.21.255.231'
I13022
I9999
tp188
I89
s(S'118.26.156.48'
S'166.64.227.174'
I1068
I47261
tp189
I144
s(S'233.250.54.118'
S'214.178.108.206'
I1602
I21024
tp190
I358
s(S'150.241.233.159'
S'106.59.19.165'
I37801
I4173
tp191
I30
s(S'175.31.239.78'
S'59.240.182.190'
I43324
I38598
tp192
I29
s(S'159.152.163.157'
S'212.226.98.22'
I16694
I20535
tp193
I361
s(S'112.110.253.251'
S'245.87.153.108'
I38304
I47030
tp194
I264
s(S'100.224.144.70'
S'6.14.110.245'
I44382
I23197
tp195
I297
s(S'253.215.94.251'
S'23.241.59.64'
I26266
I46726
tp196
I195
s(S'28.126.22.77'
S'225.185.10.109'
I39318
I17990
tp197
I1
s(S'45.203.92.153'
S'99.94.163.41'
I14304
I704
tp198
I588
s(S'137.196.174.46'
S'157.43.22.214'
I17771
I30822
tp199
I1
s(S'78.157.249.206'
S'55.135.109.105'
I8743
I33342
tp200
I473
s(S'15.254.138.243'
S'79.219.32.41'
I619
I11962
tp201
I584
s(S'172.214.242.177'
S'231.251.32.120'
I42044
I21204
tp202
I605
st.